target datalayout = "e-m:e-p270:32:32-p271:32:32-p272:64:64-i64:64-i128:128-f80:128-n8:16:32:64-S128"
target triple = "x86_64-pc-linux-gnu"

@.str = private unnamed_addr constant [26 x i8] c"GIT_TEST_PROTOCOL_VERSION\00", align 1
@.str.1 = private unnamed_addr constant [17 x i8] c"protocol.version\00", align 1
@.str.2 = private unnamed_addr constant [48 x i8] c"unknown value for config 'protocol.version': %s\00", align 1
@.str.3 = private unnamed_addr constant [25 x i8] c"unknown value for %s: %s\00", align 1
@the_repository = external global ptr, align 8
@.str.12 = private unnamed_addr constant [2 x i8] c"0\00", align 1
@.str.13 = private unnamed_addr constant [2 x i8] c"1\00", align 1
@.str.14 = private unnamed_addr constant [2 x i8] c"2\00", align 1

; Function Attrs: nounwind uwtable
define internal i32 @parse_protocol_version(ptr noundef %0) #0 {
  %2 = alloca i32, align 4
  %3 = alloca ptr, align 8
  store ptr %0, ptr %3, align 8, !tbaa !4
  %4 = load ptr, ptr %3, align 8, !tbaa !4
  %5 = call i32 @strcmp(ptr noundef %4, ptr noundef @.str.12) #10
  %6 = icmp ne i32 %5, 0
  br i1 %6, label %8, label %7

7:                                                ; preds = %1
  store i32 0, ptr %2, align 4
  br label %19

8:                                                ; preds = %1
  %9 = load ptr, ptr %3, align 8, !tbaa !4
  %10 = call i32 @strcmp(ptr noundef %9, ptr noundef @.str.13) #10
  %11 = icmp ne i32 %10, 0
  br i1 %11, label %13, label %12

12:                                               ; preds = %8
  store i32 1, ptr %2, align 4
  br label %19

13:                                               ; preds = %8
  %14 = load ptr, ptr %3, align 8, !tbaa !4
  %15 = call i32 @strcmp(ptr noundef %14, ptr noundef @.str.14) #10
  %16 = icmp ne i32 %15, 0
  br i1 %16, label %18, label %17

17:                                               ; preds = %13
  store i32 2, ptr %2, align 4
  br label %19

18:                                               ; preds = %13
  store i32 -1, ptr %2, align 4
  br label %19

19:                                               ; preds = %18, %17, %12, %7
  %20 = load i32, ptr %2, align 4
  ret i32 %20
}

; Function Attrs: inlinehint nounwind uwtable
define internal i32 @git_config_get_string_tmp(ptr noundef %0, ptr noundef %1) #2 {
  %3 = alloca ptr, align 8
  %4 = alloca ptr, align 8
  store ptr %0, ptr %3, align 8, !tbaa !4
  store ptr %1, ptr %4, align 8, !tbaa !12
  %5 = load ptr, ptr @the_repository, align 8, !tbaa !14
  %6 = load ptr, ptr %3, align 8, !tbaa !4
  %7 = load ptr, ptr %4, align 8, !tbaa !12
  %8 = call i32 @repo_config_get_string_tmp(ptr noundef %5, ptr noundef %6, ptr noundef %7)
  ret i32 %8
}

; Function Attrs: nounwind uwtable
define dso_local i32 @get_protocol_version_config() #0 {
  %1 = alloca i32, align 4
  %2 = alloca ptr, align 8
  %3 = alloca ptr, align 8
  %4 = alloca ptr, align 8
  %5 = alloca i32, align 4
  %6 = alloca i32, align 4
  %7 = alloca i32, align 4
  call void @llvm.lifetime.start.p0(i64 8, ptr %2) #8
  call void @llvm.lifetime.start.p0(i64 8, ptr %3) #8
  store ptr @.str, ptr %3, align 8, !tbaa !4
  call void @llvm.lifetime.start.p0(i64 8, ptr %4) #8
  %8 = call i32 @git_config_get_string_tmp(ptr noundef @.str.1, ptr noundef %2)
  %9 = icmp ne i32 %8, 0
  br i1 %9, label %19, label %10

10:                                               ; preds = %0
  call void @llvm.lifetime.start.p0(i64 4, ptr %5) #8
  %11 = load ptr, ptr %2, align 8, !tbaa !4
  %12 = call i32 @parse_protocol_version(ptr noundef %11)
  store i32 %12, ptr %5, align 4, !tbaa !9
  %13 = load i32, ptr %5, align 4, !tbaa !9
  %14 = icmp eq i32 %13, -1
  br i1 %14, label %15, label %17

15:                                               ; preds = %10
  %16 = load ptr, ptr %2, align 8, !tbaa !4
  call void (ptr, ...) @die(ptr noundef @.str.2, ptr noundef %16) #9
  unreachable

17:                                               ; preds = %10
  %18 = load i32, ptr %5, align 4, !tbaa !9
  store i32 %18, ptr %1, align 4
  store i32 1, ptr %6, align 4
  call void @llvm.lifetime.end.p0(i64 4, ptr %5) #8
  br label %40

19:                                               ; preds = %0
  %20 = load ptr, ptr %3, align 8, !tbaa !4
  %21 = call ptr @getenv(ptr noundef %20) #8
  store ptr %21, ptr %4, align 8, !tbaa !4
  %22 = load ptr, ptr %4, align 8, !tbaa !4
  %23 = icmp ne ptr %22, null
  br i1 %23, label %24, label %39

24:                                               ; preds = %19
  %25 = load ptr, ptr %4, align 8, !tbaa !4
  %26 = load i8, ptr %25, align 1, !tbaa !11
  %27 = sext i8 %26 to i32
  %28 = icmp ne i32 %27, 0
  br i1 %28, label %29, label %39

29:                                               ; preds = %24
  call void @llvm.lifetime.start.p0(i64 4, ptr %7) #8
  %30 = load ptr, ptr %4, align 8, !tbaa !4
  %31 = call i32 @parse_protocol_version(ptr noundef %30)
  store i32 %31, ptr %7, align 4, !tbaa !9
  %32 = load i32, ptr %7, align 4, !tbaa !9
  %33 = icmp eq i32 %32, -1
  br i1 %33, label %34, label %37

34:                                               ; preds = %29
  %35 = load ptr, ptr %3, align 8, !tbaa !4
  %36 = load ptr, ptr %4, align 8, !tbaa !4
  call void (ptr, ...) @die(ptr noundef @.str.3, ptr noundef %35, ptr noundef %36) #9
  unreachable

37:                                               ; preds = %29
  %38 = load i32, ptr %7, align 4, !tbaa !9
  store i32 %38, ptr %1, align 4
  store i32 1, ptr %6, align 4
  call void @llvm.lifetime.end.p0(i64 4, ptr %7) #8
  br label %40

39:                                               ; preds = %24, %19
  store i32 2, ptr %1, align 4
  store i32 1, ptr %6, align 4
  br label %40

40:                                               ; preds = %39, %37, %17
  call void @llvm.lifetime.end.p0(i64 8, ptr %4) #8
  call void @llvm.lifetime.end.p0(i64 8, ptr %3) #8
  call void @llvm.lifetime.end.p0(i64 8, ptr %2) #8
  %41 = load i32, ptr %1, align 4
  ret i32 %41
}