; Function Attrs: nounwind uwtable
define dso_local range(i32 0, 3) i32 @get_protocol_version_config() local_unnamed_addr #0 {
  %1 = alloca ptr, align 8
  call void @llvm.lifetime.start.p0(i64 8, ptr nonnull %1) #7
  %2 = load ptr, ptr @the_repository, align 8, !tbaa !4
  %3 = call i32 @repo_config_get_string_tmp(ptr noundef %2, ptr noundef nonnull @.str.1, ptr noundef nonnull %1) #7
  %.not = icmp eq i32 %3, 0
  br i1 %.not, label %4, label %12

4:                                                ; preds = %0
  %5 = load ptr, ptr %1, align 8, !tbaa !9
  %6 = load i8, ptr %5, align 1
  %switch.tableidx = add i8 %6, -48
  %7 = icmp ult i8 %switch.tableidx, 3
  br i1 %7, label %switch.lookup, label %11

switch.lookup:                                    ; preds = %4
  %switch.idx.cast = zext nneg i8 %switch.tableidx to i32
  %8 = getelementptr inbounds nuw i8, ptr %5, i64 1
  %9 = load i8, ptr %8, align 1
  %10 = icmp eq i8 %9, 0
  br i1 %10, label %parse_protocol_version.exit, label %11

11:                                               ; preds = %4, %switch.lookup
  call void (ptr, ...) @die(ptr noundef nonnull @.str.2, ptr noundef nonnull %5) #8
  unreachable

12:                                               ; preds = %0
  %13 = call ptr @getenv(ptr noundef nonnull @.str) #7
  %.not13 = icmp eq ptr %13, null
  br i1 %.not13, label %parse_protocol_version.exit, label %14

14:                                               ; preds = %12
  %15 = load i8, ptr %13, align 1, !tbaa !11
  switch i8 %15, label %19 [
    i8 0, label %parse_protocol_version.exit
    i8 48, label %.tail9.sink.split.i16
    i8 49, label %.tail5.i20
    i8 50, label %sub_111.i15
  ]

.tail5.i20:                                       ; preds = %14
  br label %.tail9.sink.split.i16

sub_111.i15:                                      ; preds = %14
  br label %.tail9.sink.split.i16

.tail9.sink.split.i16:                            ; preds = %14, %sub_111.i15, %.tail5.i20
  %.sink23.i17 = phi i32 [ 1, %.tail5.i20 ], [ 2, %sub_111.i15 ], [ 0, %14 ]
  %16 = getelementptr inbounds nuw i8, ptr %13, i64 1
  %17 = load i8, ptr %16, align 1
  %18 = icmp eq i8 %17, 0
  br i1 %18, label %parse_protocol_version.exit, label %19

19:                                               ; preds = %14, %.tail9.sink.split.i16
  call void (ptr, ...) @die(ptr noundef nonnull @.str.3, ptr noundef nonnull @.str, ptr noundef nonnull %13) #8
  unreachable

parse_protocol_version.exit:                      ; preds = %14, %.tail9.sink.split.i16, %switch.lookup, %12
  %.0 = phi i32 [ 2, %14 ], [ 2, %12 ], [ %switch.idx.cast, %switch.lookup ], [ %.sink23.i17, %.tail9.sink.split.i16 ]
  call void @llvm.lifetime.end.p0(i64 8, ptr nonnull %1) #7
  ret i32 %.0
}